; Function Attrs: mustprogress nofree norecurse nosync nounwind willreturn memory(argmem: read) uwtable
define internal noundef zeroext i1 @_ZNK12_GLOBAL__N_125ParsedAttrInfoCmseNSEntry14existsInTargetERKN5clang10TargetInfoE(ptr nocapture nonnull readnone align 8 %0, ptr nocapture noundef nonnull readonly align 8 dereferenceable(489) %1) unnamed_addr #2 align 2 {
switch.edge:
  %2 = getelementptr inbounds i8, ptr %1, i64 248
  %3 = load i32, ptr %2, align 8
  %4 = icmp ult i32 %3, 37
  %switch.cast = zext nneg i32 %3 to i37
  %switch.downshift = lshr i37 -34359738362, %switch.cast
  %switch.masked = trunc i37 %switch.downshift to i1
  %5 = select i1 %4, i1 %switch.masked, i1 false
  ret i1 %5
}